; Function Attrs: mustprogress uwtable
define void @_ZN5Ipopt17CompoundSymMatrix7SetCompEiiRKNS_6MatrixE(ptr noundef nonnull align 8 dereferenceable(137) %0, i32 noundef %1, i32 noundef %2, ptr noundef nonnull align 8 dereferenceable(69) %3) local_unnamed_addr #0 align 2 {
  %5 = getelementptr inbounds nuw i8, ptr %0, i64 80
  %6 = sext i32 %1 to i64
  %7 = load ptr, ptr %5, align 8, !tbaa !91
  %8 = getelementptr inbounds nuw %"class.std::vector.25", ptr %7, i64 %6
  %9 = sext i32 %2 to i64
  %10 = load ptr, ptr %8, align 8, !tbaa !61
  %11 = getelementptr inbounds nuw %"class.Ipopt::SmartPtr.35", ptr %10, i64 %9
  %12 = load ptr, ptr %11, align 8, !tbaa !64
  %.not.i.i.i = icmp eq ptr %12, null
  br i1 %.not.i.i.i, label %_ZN5Ipopt8SmartPtrINS_6MatrixEEaSEPS1_.exit, label %13

13:                                               ; preds = %4
  %14 = getelementptr inbounds nuw i8, ptr %12, i64 8
  %15 = load i32, ptr %14, align 8, !tbaa !3
  %16 = add nsw i32 %15, -1
  store i32 %16, ptr %14, align 8, !tbaa !3
  %17 = icmp eq i32 %16, 0
  br i1 %17, label %18, label %_ZN5Ipopt8SmartPtrINS_6MatrixEEaSEPS1_.exit

18:                                               ; preds = %13
  %19 = load ptr, ptr %12, align 8, !tbaa !8
  %20 = getelementptr inbounds nuw i8, ptr %19, i64 8
  %21 = load ptr, ptr %20, align 8
  tail call void %21(ptr noundef nonnull align 8 dereferenceable(69) %12) #20
  br label %_ZN5Ipopt8SmartPtrINS_6MatrixEEaSEPS1_.exit

_ZN5Ipopt8SmartPtrINS_6MatrixEEaSEPS1_.exit:      ; preds = %4, %13, %18
  store ptr null, ptr %11, align 8, !tbaa !64
  %22 = getelementptr inbounds nuw i8, ptr %0, i64 104
  %23 = load ptr, ptr %22, align 8, !tbaa !89
  %24 = getelementptr inbounds nuw %"class.std::vector.30", ptr %23, i64 %6
  %25 = load ptr, ptr %24, align 8, !tbaa !69
  %26 = getelementptr inbounds nuw %"class.Ipopt::SmartPtr.36", ptr %25, i64 %9
  %27 = getelementptr inbounds nuw i8, ptr %3, i64 8
  %28 = load i32, ptr %27, align 8, !tbaa !3
  %29 = add nsw i32 %28, 1
  store i32 %29, ptr %27, align 8, !tbaa !3
  %30 = load ptr, ptr %26, align 8, !tbaa !72
  %.not.i.i.i5 = icmp eq ptr %30, null
  br i1 %.not.i.i.i5, label %_ZN5Ipopt8SmartPtrIKNS_6MatrixEEaSEPS2_.exit, label %31

31:                                               ; preds = %_ZN5Ipopt8SmartPtrINS_6MatrixEEaSEPS1_.exit
  %32 = getelementptr inbounds nuw i8, ptr %30, i64 8
  %33 = load i32, ptr %32, align 8, !tbaa !3
  %34 = add nsw i32 %33, -1
  store i32 %34, ptr %32, align 8, !tbaa !3
  %35 = icmp eq i32 %34, 0
  br i1 %35, label %36, label %_ZN5Ipopt8SmartPtrIKNS_6MatrixEEaSEPS2_.exit

36:                                               ; preds = %31
  %37 = load ptr, ptr %30, align 8, !tbaa !8
  %38 = getelementptr inbounds nuw i8, ptr %37, i64 8
  %39 = load ptr, ptr %38, align 8
  tail call void %39(ptr noundef nonnull align 8 dereferenceable(69) %30) #20
  br label %_ZN5Ipopt8SmartPtrIKNS_6MatrixEEaSEPS2_.exit

_ZN5Ipopt8SmartPtrIKNS_6MatrixEEaSEPS2_.exit:     ; preds = %_ZN5Ipopt8SmartPtrINS_6MatrixEEaSEPS1_.exit, %31, %36
  store ptr %3, ptr %26, align 8, !tbaa !72
  tail call void @_ZN5Ipopt12TaggedObject13ObjectChangedEv(ptr noundef nonnull align 8 dereferenceable(56) %0)
  ret void
}